target datalayout = "e-m:e-p270:32:32-p271:32:32-p272:64:64-i64:64-i128:128-f80:128-n8:16:32:64-S128"
target triple = "x86_64-pc-linux-gnu"

%struct.hwloc_infos_s = type { ptr, i32, i32 }
%struct.hwloc_obj = type { i32, ptr, i32, ptr, i64, ptr, i32, i32, ptr, ptr, ptr, i32, ptr, ptr, i32, ptr, ptr, ptr, i32, i32, ptr, i32, ptr, i32, ptr, ptr, ptr, ptr, ptr, %struct.hwloc_infos_s, ptr, i64 }

; Function Attrs: nounwind uwtable
define i32 @hwloc_obj_add_other_obj_sets(ptr noundef %0, ptr noundef %1) #0 {
  %3 = alloca i32, align 4
  %4 = alloca ptr, align 8
  %5 = alloca ptr, align 8
  store ptr %0, ptr %4, align 8, !tbaa !37
  store ptr %1, ptr %5, align 8, !tbaa !37
  %6 = load ptr, ptr %5, align 8, !tbaa !37
  %7 = getelementptr inbounds nuw %struct.hwloc_obj, ptr %6, i32 0, i32 25
  %8 = load ptr, ptr %7, align 8, !tbaa !39
  %9 = icmp ne ptr %8, null
  br i1 %9, label %10, label %38

10:                                               ; preds = %2
  %11 = load ptr, ptr %4, align 8, !tbaa !37
  %12 = getelementptr inbounds nuw %struct.hwloc_obj, ptr %11, i32 0, i32 25
  %13 = load ptr, ptr %12, align 8, !tbaa !39
  %14 = icmp ne ptr %13, null
  br i1 %14, label %19, label %15

15:                                               ; preds = %10
  %16 = call noalias ptr @hwloc_bitmap_alloc()
  %17 = load ptr, ptr %4, align 8, !tbaa !37
  %18 = getelementptr inbounds nuw %struct.hwloc_obj, ptr %17, i32 0, i32 25
  store ptr %16, ptr %18, align 8, !tbaa !39
  br label %19

19:                                               ; preds = %15, %10
  %20 = load ptr, ptr %4, align 8, !tbaa !37
  %21 = getelementptr inbounds nuw %struct.hwloc_obj, ptr %20, i32 0, i32 25
  %22 = load ptr, ptr %21, align 8, !tbaa !39
  %23 = icmp ne ptr %22, null
  br i1 %23, label %24, label %36

24:                                               ; preds = %19
  %25 = load ptr, ptr %4, align 8, !tbaa !37
  %26 = getelementptr inbounds nuw %struct.hwloc_obj, ptr %25, i32 0, i32 25
  %27 = load ptr, ptr %26, align 8, !tbaa !39
  %28 = load ptr, ptr %4, align 8, !tbaa !37
  %29 = getelementptr inbounds nuw %struct.hwloc_obj, ptr %28, i32 0, i32 25
  %30 = load ptr, ptr %29, align 8, !tbaa !39
  %31 = load ptr, ptr %5, align 8, !tbaa !37
  %32 = getelementptr inbounds nuw %struct.hwloc_obj, ptr %31, i32 0, i32 25
  %33 = load ptr, ptr %32, align 8, !tbaa !39
  %34 = call i32 @hwloc_bitmap_or(ptr noundef %27, ptr noundef %30, ptr noundef %33)
  %35 = icmp slt i32 %34, 0
  br i1 %35, label %36, label %37

36:                                               ; preds = %24, %19
  store i32 -1, ptr %3, align 4
  br label %138

37:                                               ; preds = %24
  br label %38

38:                                               ; preds = %37, %2
  %39 = load ptr, ptr %5, align 8, !tbaa !37
  %40 = getelementptr inbounds nuw %struct.hwloc_obj, ptr %39, i32 0, i32 26
  %41 = load ptr, ptr %40, align 8, !tbaa !53
  %42 = icmp ne ptr %41, null
  br i1 %42, label %43, label %71

43:                                               ; preds = %38
  %44 = load ptr, ptr %4, align 8, !tbaa !37
  %45 = getelementptr inbounds nuw %struct.hwloc_obj, ptr %44, i32 0, i32 26
  %46 = load ptr, ptr %45, align 8, !tbaa !53
  %47 = icmp ne ptr %46, null
  br i1 %47, label %52, label %48

48:                                               ; preds = %43
  %49 = call noalias ptr @hwloc_bitmap_alloc()
  %50 = load ptr, ptr %4, align 8, !tbaa !37
  %51 = getelementptr inbounds nuw %struct.hwloc_obj, ptr %50, i32 0, i32 26
  store ptr %49, ptr %51, align 8, !tbaa !53
  br label %52

52:                                               ; preds = %48, %43
  %53 = load ptr, ptr %4, align 8, !tbaa !37
  %54 = getelementptr inbounds nuw %struct.hwloc_obj, ptr %53, i32 0, i32 26
  %55 = load ptr, ptr %54, align 8, !tbaa !53
  %56 = icmp ne ptr %55, null
  br i1 %56, label %57, label %69

57:                                               ; preds = %52
  %58 = load ptr, ptr %4, align 8, !tbaa !37
  %59 = getelementptr inbounds nuw %struct.hwloc_obj, ptr %58, i32 0, i32 26
  %60 = load ptr, ptr %59, align 8, !tbaa !53
  %61 = load ptr, ptr %4, align 8, !tbaa !37
  %62 = getelementptr inbounds nuw %struct.hwloc_obj, ptr %61, i32 0, i32 26
  %63 = load ptr, ptr %62, align 8, !tbaa !53
  %64 = load ptr, ptr %5, align 8, !tbaa !37
  %65 = getelementptr inbounds nuw %struct.hwloc_obj, ptr %64, i32 0, i32 26
  %66 = load ptr, ptr %65, align 8, !tbaa !53
  %67 = call i32 @hwloc_bitmap_or(ptr noundef %60, ptr noundef %63, ptr noundef %66)
  %68 = icmp slt i32 %67, 0
  br i1 %68, label %69, label %70

69:                                               ; preds = %57, %52
  store i32 -1, ptr %3, align 4
  br label %138

70:                                               ; preds = %57
  br label %71

71:                                               ; preds = %70, %38
  %72 = load ptr, ptr %5, align 8, !tbaa !37
  %73 = getelementptr inbounds nuw %struct.hwloc_obj, ptr %72, i32 0, i32 27
  %74 = load ptr, ptr %73, align 8, !tbaa !76
  %75 = icmp ne ptr %74, null
  br i1 %75, label %76, label %104

76:                                               ; preds = %71
  %77 = load ptr, ptr %4, align 8, !tbaa !37
  %78 = getelementptr inbounds nuw %struct.hwloc_obj, ptr %77, i32 0, i32 27
  %79 = load ptr, ptr %78, align 8, !tbaa !76
  %80 = icmp ne ptr %79, null
  br i1 %80, label %85, label %81

81:                                               ; preds = %76
  %82 = call noalias ptr @hwloc_bitmap_alloc()
  %83 = load ptr, ptr %4, align 8, !tbaa !37
  %84 = getelementptr inbounds nuw %struct.hwloc_obj, ptr %83, i32 0, i32 27
  store ptr %82, ptr %84, align 8, !tbaa !76
  br label %85

85:                                               ; preds = %81, %76
  %86 = load ptr, ptr %4, align 8, !tbaa !37
  %87 = getelementptr inbounds nuw %struct.hwloc_obj, ptr %86, i32 0, i32 27
  %88 = load ptr, ptr %87, align 8, !tbaa !76
  %89 = icmp ne ptr %88, null
  br i1 %89, label %90, label %102

90:                                               ; preds = %85
  %91 = load ptr, ptr %4, align 8, !tbaa !37
  %92 = getelementptr inbounds nuw %struct.hwloc_obj, ptr %91, i32 0, i32 27
  %93 = load ptr, ptr %92, align 8, !tbaa !76
  %94 = load ptr, ptr %4, align 8, !tbaa !37
  %95 = getelementptr inbounds nuw %struct.hwloc_obj, ptr %94, i32 0, i32 27
  %96 = load ptr, ptr %95, align 8, !tbaa !76
  %97 = load ptr, ptr %5, align 8, !tbaa !37
  %98 = getelementptr inbounds nuw %struct.hwloc_obj, ptr %97, i32 0, i32 27
  %99 = load ptr, ptr %98, align 8, !tbaa !76
  %100 = call i32 @hwloc_bitmap_or(ptr noundef %93, ptr noundef %96, ptr noundef %99)
  %101 = icmp slt i32 %100, 0
  br i1 %101, label %102, label %103

102:                                              ; preds = %90, %85
  store i32 -1, ptr %3, align 4
  br label %138

103:                                              ; preds = %90
  br label %104

104:                                              ; preds = %103, %71
  %105 = load ptr, ptr %5, align 8, !tbaa !37
  %106 = getelementptr inbounds nuw %struct.hwloc_obj, ptr %105, i32 0, i32 28
  %107 = load ptr, ptr %106, align 8, !tbaa !77
  %108 = icmp ne ptr %107, null
  br i1 %108, label %109, label %137

109:                                              ; preds = %104
  %110 = load ptr, ptr %4, align 8, !tbaa !37
  %111 = getelementptr inbounds nuw %struct.hwloc_obj, ptr %110, i32 0, i32 28
  %112 = load ptr, ptr %111, align 8, !tbaa !77
  %113 = icmp ne ptr %112, null
  br i1 %113, label %118, label %114

114:                                              ; preds = %109
  %115 = call noalias ptr @hwloc_bitmap_alloc()
  %116 = load ptr, ptr %4, align 8, !tbaa !37
  %117 = getelementptr inbounds nuw %struct.hwloc_obj, ptr %116, i32 0, i32 28
  store ptr %115, ptr %117, align 8, !tbaa !77
  br label %118

118:                                              ; preds = %114, %109
  %119 = load ptr, ptr %4, align 8, !tbaa !37
  %120 = getelementptr inbounds nuw %struct.hwloc_obj, ptr %119, i32 0, i32 28
  %121 = load ptr, ptr %120, align 8, !tbaa !77
  %122 = icmp ne ptr %121, null
  br i1 %122, label %123, label %135

123:                                              ; preds = %118
  %124 = load ptr, ptr %4, align 8, !tbaa !37
  %125 = getelementptr inbounds nuw %struct.hwloc_obj, ptr %124, i32 0, i32 28
  %126 = load ptr, ptr %125, align 8, !tbaa !77
  %127 = load ptr, ptr %4, align 8, !tbaa !37
  %128 = getelementptr inbounds nuw %struct.hwloc_obj, ptr %127, i32 0, i32 28
  %129 = load ptr, ptr %128, align 8, !tbaa !77
  %130 = load ptr, ptr %5, align 8, !tbaa !37
  %131 = getelementptr inbounds nuw %struct.hwloc_obj, ptr %130, i32 0, i32 28
  %132 = load ptr, ptr %131, align 8, !tbaa !77
  %133 = call i32 @hwloc_bitmap_or(ptr noundef %126, ptr noundef %129, ptr noundef %132)
  %134 = icmp slt i32 %133, 0
  br i1 %134, label %135, label %136

135:                                              ; preds = %123, %118
  store i32 -1, ptr %3, align 4
  br label %138

136:                                              ; preds = %123
  br label %137

137:                                              ; preds = %136, %104
  store i32 0, ptr %3, align 4
  br label %138

138:                                              ; preds = %137, %135, %102, %69, %36
  %139 = load i32, ptr %3, align 4
  ret i32 %139
}