; Function Attrs: nounwind uwtable
define range(i32 -1, 1) i32 @hwloc_obj_add_other_obj_sets(ptr noundef captures(none) %0, ptr noundef readonly captures(none) %1) local_unnamed_addr #5 {
  %3 = getelementptr inbounds nuw i8, ptr %1, i64 184
  %4 = load ptr, ptr %3, align 8, !tbaa !45
  %.not = icmp eq ptr %4, null
  br i1 %.not, label %14, label %5

5:                                                ; preds = %2
  %6 = getelementptr inbounds nuw i8, ptr %0, i64 184
  %7 = load ptr, ptr %6, align 8, !tbaa !45
  %.not32 = icmp eq ptr %7, null
  br i1 %.not32, label %8, label %.thread

8:                                                ; preds = %5
  %9 = tail call noalias ptr @hwloc_bitmap_alloc() #34
  store ptr %9, ptr %6, align 8, !tbaa !45
  %.not33 = icmp eq ptr %9, null
  br i1 %.not33, label %51, label %..thread_crit_edge

..thread_crit_edge:                               ; preds = %8
  %.pre = load ptr, ptr %3, align 8, !tbaa !45
  br label %.thread

.thread:                                          ; preds = %..thread_crit_edge, %5
  %10 = phi ptr [ %.pre, %..thread_crit_edge ], [ %4, %5 ]
  %11 = phi ptr [ %9, %..thread_crit_edge ], [ %7, %5 ]
  %12 = tail call i32 @hwloc_bitmap_or(ptr noundef nonnull %11, ptr noundef nonnull %11, ptr noundef %10) #34
  %13 = icmp slt i32 %12, 0
  br i1 %13, label %51, label %14

14:                                               ; preds = %.thread, %2
  %15 = getelementptr inbounds nuw i8, ptr %1, i64 192
  %16 = load ptr, ptr %15, align 8, !tbaa !54
  %.not34 = icmp eq ptr %16, null
  br i1 %.not34, label %26, label %17

17:                                               ; preds = %14
  %18 = getelementptr inbounds nuw i8, ptr %0, i64 192
  %19 = load ptr, ptr %18, align 8, !tbaa !54
  %.not35 = icmp eq ptr %19, null
  br i1 %.not35, label %20, label %.thread44

20:                                               ; preds = %17
  %21 = tail call noalias ptr @hwloc_bitmap_alloc() #34
  store ptr %21, ptr %18, align 8, !tbaa !54
  %.not36 = icmp eq ptr %21, null
  br i1 %.not36, label %51, label %..thread44_crit_edge

..thread44_crit_edge:                             ; preds = %20
  %.pre50 = load ptr, ptr %15, align 8, !tbaa !54
  br label %.thread44

.thread44:                                        ; preds = %..thread44_crit_edge, %17
  %22 = phi ptr [ %.pre50, %..thread44_crit_edge ], [ %16, %17 ]
  %23 = phi ptr [ %21, %..thread44_crit_edge ], [ %19, %17 ]
  %24 = tail call i32 @hwloc_bitmap_or(ptr noundef nonnull %23, ptr noundef nonnull %23, ptr noundef %22) #34
  %25 = icmp slt i32 %24, 0
  br i1 %25, label %51, label %26

26:                                               ; preds = %.thread44, %14
  %27 = getelementptr inbounds nuw i8, ptr %1, i64 200
  %28 = load ptr, ptr %27, align 8, !tbaa !83
  %.not37 = icmp eq ptr %28, null
  br i1 %.not37, label %38, label %29

29:                                               ; preds = %26
  %30 = getelementptr inbounds nuw i8, ptr %0, i64 200
  %31 = load ptr, ptr %30, align 8, !tbaa !83
  %.not38 = icmp eq ptr %31, null
  br i1 %.not38, label %32, label %.thread46

32:                                               ; preds = %29
  %33 = tail call noalias ptr @hwloc_bitmap_alloc() #34
  store ptr %33, ptr %30, align 8, !tbaa !83
  %.not39 = icmp eq ptr %33, null
  br i1 %.not39, label %51, label %..thread46_crit_edge

..thread46_crit_edge:                             ; preds = %32
  %.pre51 = load ptr, ptr %27, align 8, !tbaa !83
  br label %.thread46

.thread46:                                        ; preds = %..thread46_crit_edge, %29
  %34 = phi ptr [ %.pre51, %..thread46_crit_edge ], [ %28, %29 ]
  %35 = phi ptr [ %33, %..thread46_crit_edge ], [ %31, %29 ]
  %36 = tail call i32 @hwloc_bitmap_or(ptr noundef nonnull %35, ptr noundef nonnull %35, ptr noundef %34) #34
  %37 = icmp slt i32 %36, 0
  br i1 %37, label %51, label %38

38:                                               ; preds = %.thread46, %26
  %39 = getelementptr inbounds nuw i8, ptr %1, i64 208
  %40 = load ptr, ptr %39, align 8, !tbaa !84
  %.not40 = icmp eq ptr %40, null
  br i1 %.not40, label %50, label %41

41:                                               ; preds = %38
  %42 = getelementptr inbounds nuw i8, ptr %0, i64 208
  %43 = load ptr, ptr %42, align 8, !tbaa !84
  %.not41 = icmp eq ptr %43, null
  br i1 %.not41, label %44, label %.thread48

44:                                               ; preds = %41
  %45 = tail call noalias ptr @hwloc_bitmap_alloc() #34
  store ptr %45, ptr %42, align 8, !tbaa !84
  %.not42 = icmp eq ptr %45, null
  br i1 %.not42, label %51, label %..thread48_crit_edge

..thread48_crit_edge:                             ; preds = %44
  %.pre52 = load ptr, ptr %39, align 8, !tbaa !84
  br label %.thread48

.thread48:                                        ; preds = %..thread48_crit_edge, %41
  %46 = phi ptr [ %.pre52, %..thread48_crit_edge ], [ %40, %41 ]
  %47 = phi ptr [ %45, %..thread48_crit_edge ], [ %43, %41 ]
  %48 = tail call i32 @hwloc_bitmap_or(ptr noundef nonnull %47, ptr noundef nonnull %47, ptr noundef %46) #34
  %49 = icmp slt i32 %48, 0
  br i1 %49, label %51, label %50

50:                                               ; preds = %.thread48, %38
  br label %51

51:                                               ; preds = %44, %.thread48, %32, %.thread46, %20, %.thread44, %8, %.thread, %50
  %.0 = phi i32 [ 0, %50 ], [ -1, %.thread ], [ -1, %8 ], [ -1, %.thread44 ], [ -1, %20 ], [ -1, %.thread46 ], [ -1, %32 ], [ -1, %.thread48 ], [ -1, %44 ]
  ret i32 %.0
}